; Function Attrs: mustprogress uwtable
define void @_ZN6icu_756Locale15createCanonicalEPKc(ptr noalias sret(%"class.icu_75::Locale") align 8 %agg.result, ptr noundef %name) local_unnamed_addr #1 align 2 personality ptr @__gxx_personality_v0 {
entry:
  tail call void @_ZN6icu_756LocaleC1EPKcS2_S2_S2_(ptr noundef nonnull align 8 dereferenceable(217) %agg.result, ptr noundef nonnull @.str, ptr noundef null, ptr noundef null, ptr noundef null)
  %call = invoke noundef nonnull align 8 dereferenceable(217) ptr @_ZN6icu_756Locale4initEPKca(ptr noundef nonnull align 8 dereferenceable(217) %agg.result, ptr noundef %name, i8 noundef signext 1)
          to label %nrvo.skipdtor unwind label %lpad

lpad:                                             ; preds = %entry
  %0 = landingpad { ptr, i32 }
          cleanup
  tail call void @_ZN6icu_756LocaleD1Ev(ptr noundef nonnull align 8 dereferenceable(217) %agg.result) #20
  resume { ptr, i32 } %0

nrvo.skipdtor:                                    ; preds = %entry
  ret void
}